target datalayout = "e-m:e-p270:32:32-p271:32:32-p272:64:64-i64:64-i128:128-f80:128-n8:16:32:64-S128"
target triple = "x86_64-pc-linux-gnu"

%struct.Msat_Solver_t_ = type { i32, i32, ptr, ptr, double, double, ptr, ptr, double, double, ptr, ptr, ptr, i32, i32, ptr, ptr, ptr, ptr, ptr, ptr, i32, double, i32, double, ptr, ptr, ptr, ptr, i32, ptr, ptr, ptr, ptr, %struct.Msat_SolverStats_t_, i32, i32, i32, i32, i32, i32 }
%struct.Msat_SolverStats_t_ = type { i64, i64, i64, i64, i64, i64 }

; Function Attrs: nounwind uwtable
define ptr @Msat_SolverPropagate(ptr noundef %0) #0 {
  %2 = alloca ptr, align 8
  %3 = alloca ptr, align 8
  %4 = alloca ptr, align 8
  %5 = alloca ptr, align 8
  %6 = alloca ptr, align 8
  %7 = alloca i32, align 4
  %8 = alloca i32, align 4
  %9 = alloca i32, align 4
  %10 = alloca i32, align 4
  %11 = alloca i32, align 4
  %12 = alloca i32, align 4
  store ptr %0, ptr %3, align 8, !tbaa !3
  call void @llvm.lifetime.start.p0(i64 8, ptr %4) #4
  %13 = load ptr, ptr %3, align 8, !tbaa !3
  %14 = getelementptr inbounds nuw %struct.Msat_Solver_t_, ptr %13, i32 0, i32 11
  %15 = load ptr, ptr %14, align 8, !tbaa !38
  store ptr %15, ptr %4, align 8, !tbaa !39
  call void @llvm.lifetime.start.p0(i64 8, ptr %5) #4
  call void @llvm.lifetime.start.p0(i64 8, ptr %6) #4
  call void @llvm.lifetime.start.p0(i64 4, ptr %7) #4
  call void @llvm.lifetime.start.p0(i64 4, ptr %8) #4
  call void @llvm.lifetime.start.p0(i64 4, ptr %9) #4
  call void @llvm.lifetime.start.p0(i64 4, ptr %10) #4
  call void @llvm.lifetime.start.p0(i64 4, ptr %11) #4
  br label %16

16:                                               ; preds = %146, %1
  %17 = load ptr, ptr %3, align 8, !tbaa !3
  %18 = getelementptr inbounds nuw %struct.Msat_Solver_t_, ptr %17, i32 0, i32 12
  %19 = load ptr, ptr %18, align 8, !tbaa !33
  %20 = call i32 @Msat_QueueExtract(ptr noundef %19)
  store i32 %20, ptr %7, align 4, !tbaa !8
  %21 = icmp sge i32 %20, 0
  br i1 %21, label %22, label %153

22:                                               ; preds = %16
  %23 = load ptr, ptr %3, align 8, !tbaa !3
  %24 = getelementptr inbounds nuw %struct.Msat_Solver_t_, ptr %23, i32 0, i32 34
  %25 = getelementptr inbounds nuw %struct.Msat_SolverStats_t_, ptr %24, i32 0, i32 2
  %26 = load i64, ptr %25, align 8, !tbaa !40
  %27 = add nsw i64 %26, 1
  store i64 %27, ptr %25, align 8, !tbaa !40
  %28 = load ptr, ptr %4, align 8, !tbaa !39
  %29 = load i32, ptr %7, align 4, !tbaa !8
  %30 = sext i32 %29 to i64
  %31 = getelementptr inbounds ptr, ptr %28, i64 %30
  %32 = load ptr, ptr %31, align 8, !tbaa !41
  %33 = call i32 @Msat_ClauseVecReadSize(ptr noundef %32)
  store i32 %33, ptr %11, align 4, !tbaa !8
  %34 = load ptr, ptr %4, align 8, !tbaa !39
  %35 = load i32, ptr %7, align 4, !tbaa !8
  %36 = sext i32 %35 to i64
  %37 = getelementptr inbounds ptr, ptr %34, i64 %36
  %38 = load ptr, ptr %37, align 8, !tbaa !41
  %39 = call ptr @Msat_ClauseVecReadArray(ptr noundef %38)
  store ptr %39, ptr %5, align 8, !tbaa !42
  store i32 0, ptr %10, align 4, !tbaa !8
  store i32 0, ptr %9, align 4, !tbaa !8
  br label %40

40:                                               ; preds = %143, %22
  %41 = load i32, ptr %9, align 4, !tbaa !8
  %42 = load i32, ptr %11, align 4, !tbaa !8
  %43 = icmp slt i32 %41, %42
  br i1 %43, label %44, label %146

44:                                               ; preds = %40
  %45 = load ptr, ptr %3, align 8, !tbaa !3
  %46 = getelementptr inbounds nuw %struct.Msat_Solver_t_, ptr %45, i32 0, i32 34
  %47 = getelementptr inbounds nuw %struct.Msat_SolverStats_t_, ptr %46, i32 0, i32 3
  %48 = load i64, ptr %47, align 8, !tbaa !43
  %49 = add nsw i64 %48, 1
  store i64 %49, ptr %47, align 8, !tbaa !43
  store i32 -1, ptr %8, align 4, !tbaa !8
  %50 = load ptr, ptr %5, align 8, !tbaa !42
  %51 = load i32, ptr %9, align 4, !tbaa !8
  %52 = sext i32 %51 to i64
  %53 = getelementptr inbounds ptr, ptr %50, i64 %52
  %54 = load ptr, ptr %53, align 8, !tbaa !27
  %55 = load i32, ptr %7, align 4, !tbaa !8
  %56 = load ptr, ptr %3, align 8, !tbaa !3
  %57 = getelementptr inbounds nuw %struct.Msat_Solver_t_, ptr %56, i32 0, i32 15
  %58 = load ptr, ptr %57, align 8, !tbaa !30
  %59 = call i32 @Msat_ClausePropagate(ptr noundef %54, i32 noundef %55, ptr noundef %58, ptr noundef %8)
  %60 = icmp ne i32 %59, 0
  br i1 %60, label %117, label %61

61:                                               ; preds = %44
  %62 = load ptr, ptr %3, align 8, !tbaa !3
  %63 = load i32, ptr %8, align 4, !tbaa !8
  %64 = load ptr, ptr %5, align 8, !tbaa !42
  %65 = load i32, ptr %9, align 4, !tbaa !8
  %66 = sext i32 %65 to i64
  %67 = getelementptr inbounds ptr, ptr %64, i64 %66
  %68 = load ptr, ptr %67, align 8, !tbaa !27
  %69 = call i32 @Msat_SolverEnqueue(ptr noundef %62, i32 noundef %63, ptr noundef %68)
  %70 = icmp ne i32 %69, 0
  br i1 %70, label %71, label %82

71:                                               ; preds = %61
  %72 = load ptr, ptr %5, align 8, !tbaa !42
  %73 = load i32, ptr %9, align 4, !tbaa !8
  %74 = sext i32 %73 to i64
  %75 = getelementptr inbounds ptr, ptr %72, i64 %74
  %76 = load ptr, ptr %75, align 8, !tbaa !27
  %77 = load ptr, ptr %5, align 8, !tbaa !42
  %78 = load i32, ptr %10, align 4, !tbaa !8
  %79 = add nsw i32 %78, 1
  store i32 %79, ptr %10, align 4, !tbaa !8
  %80 = sext i32 %78 to i64
  %81 = getelementptr inbounds ptr, ptr %77, i64 %80
  store ptr %76, ptr %81, align 8, !tbaa !27
  br label %143

82:                                               ; preds = %61
  %83 = load ptr, ptr %5, align 8, !tbaa !42
  %84 = load i32, ptr %9, align 4, !tbaa !8
  %85 = sext i32 %84 to i64
  %86 = getelementptr inbounds ptr, ptr %83, i64 %85
  %87 = load ptr, ptr %86, align 8, !tbaa !27
  store ptr %87, ptr %6, align 8, !tbaa !27
  br label %88

88:                                               ; preds = %103, %82
  %89 = load i32, ptr %9, align 4, !tbaa !8
  %90 = load i32, ptr %11, align 4, !tbaa !8
  %91 = icmp slt i32 %89, %90
  br i1 %91, label %92, label %106

92:                                               ; preds = %88
  %93 = load ptr, ptr %5, align 8, !tbaa !42
  %94 = load i32, ptr %9, align 4, !tbaa !8
  %95 = sext i32 %94 to i64
  %96 = getelementptr inbounds ptr, ptr %93, i64 %95
  %97 = load ptr, ptr %96, align 8, !tbaa !27
  %98 = load ptr, ptr %5, align 8, !tbaa !42
  %99 = load i32, ptr %10, align 4, !tbaa !8
  %100 = add nsw i32 %99, 1
  store i32 %100, ptr %10, align 4, !tbaa !8
  %101 = sext i32 %99 to i64
  %102 = getelementptr inbounds ptr, ptr %98, i64 %101
  store ptr %97, ptr %102, align 8, !tbaa !27
  br label %103

103:                                              ; preds = %92
  %104 = load i32, ptr %9, align 4, !tbaa !8
  %105 = add nsw i32 %104, 1
  store i32 %105, ptr %9, align 4, !tbaa !8
  br label %88, !llvm.loop !44

106:                                              ; preds = %88
  %107 = load ptr, ptr %4, align 8, !tbaa !39
  %108 = load i32, ptr %7, align 4, !tbaa !8
  %109 = sext i32 %108 to i64
  %110 = getelementptr inbounds ptr, ptr %107, i64 %109
  %111 = load ptr, ptr %110, align 8, !tbaa !41
  %112 = load i32, ptr %10, align 4, !tbaa !8
  call void @Msat_ClauseVecShrink(ptr noundef %111, i32 noundef %112)
  %113 = load ptr, ptr %3, align 8, !tbaa !3
  %114 = getelementptr inbounds nuw %struct.Msat_Solver_t_, ptr %113, i32 0, i32 12
  %115 = load ptr, ptr %114, align 8, !tbaa !33
  call void @Msat_QueueClear(ptr noundef %115)
  %116 = load ptr, ptr %6, align 8, !tbaa !27
  store ptr %116, ptr %2, align 8
  store i32 1, ptr %12, align 4
  br label %154

117:                                              ; preds = %44
  %118 = load i32, ptr %8, align 4, !tbaa !8
  %119 = icmp sge i32 %118, 0
  br i1 %119, label %120, label %131

120:                                              ; preds = %117
  %121 = load ptr, ptr %4, align 8, !tbaa !39
  %122 = load i32, ptr %8, align 4, !tbaa !8
  %123 = sext i32 %122 to i64
  %124 = getelementptr inbounds ptr, ptr %121, i64 %123
  %125 = load ptr, ptr %124, align 8, !tbaa !41
  %126 = load ptr, ptr %5, align 8, !tbaa !42
  %127 = load i32, ptr %9, align 4, !tbaa !8
  %128 = sext i32 %127 to i64
  %129 = getelementptr inbounds ptr, ptr %126, i64 %128
  %130 = load ptr, ptr %129, align 8, !tbaa !27
  call void @Msat_ClauseVecPush(ptr noundef %125, ptr noundef %130)
  br label %142

131:                                              ; preds = %117
  %132 = load ptr, ptr %5, align 8, !tbaa !42
  %133 = load i32, ptr %9, align 4, !tbaa !8
  %134 = sext i32 %133 to i64
  %135 = getelementptr inbounds ptr, ptr %132, i64 %134
  %136 = load ptr, ptr %135, align 8, !tbaa !27
  %137 = load ptr, ptr %5, align 8, !tbaa !42
  %138 = load i32, ptr %10, align 4, !tbaa !8
  %139 = add nsw i32 %138, 1
  store i32 %139, ptr %10, align 4, !tbaa !8
  %140 = sext i32 %138 to i64
  %141 = getelementptr inbounds ptr, ptr %137, i64 %140
  store ptr %136, ptr %141, align 8, !tbaa !27
  br label %142

142:                                              ; preds = %131, %120
  br label %143

143:                                              ; preds = %142, %71
  %144 = load i32, ptr %9, align 4, !tbaa !8
  %145 = add nsw i32 %144, 1
  store i32 %145, ptr %9, align 4, !tbaa !8
  br label %40, !llvm.loop !45

146:                                              ; preds = %40
  %147 = load ptr, ptr %4, align 8, !tbaa !39
  %148 = load i32, ptr %7, align 4, !tbaa !8
  %149 = sext i32 %148 to i64
  %150 = getelementptr inbounds ptr, ptr %147, i64 %149
  %151 = load ptr, ptr %150, align 8, !tbaa !41
  %152 = load i32, ptr %10, align 4, !tbaa !8
  call void @Msat_ClauseVecShrink(ptr noundef %151, i32 noundef %152)
  br label %16, !llvm.loop !46

153:                                              ; preds = %16
  store ptr null, ptr %2, align 8
  store i32 1, ptr %12, align 4
  br label %154

154:                                              ; preds = %153, %106
  call void @llvm.lifetime.end.p0(i64 4, ptr %11) #4
  call void @llvm.lifetime.end.p0(i64 4, ptr %10) #4
  call void @llvm.lifetime.end.p0(i64 4, ptr %9) #4
  call void @llvm.lifetime.end.p0(i64 4, ptr %8) #4
  call void @llvm.lifetime.end.p0(i64 4, ptr %7) #4
  call void @llvm.lifetime.end.p0(i64 8, ptr %6) #4
  call void @llvm.lifetime.end.p0(i64 8, ptr %5) #4
  call void @llvm.lifetime.end.p0(i64 8, ptr %4) #4
  %155 = load ptr, ptr %2, align 8
  ret ptr %155
}