; Function Attrs: nounwind uwtable
define ptr @Msat_SolverPropagate(ptr noundef %0) local_unnamed_addr #0 {
  %2 = alloca i32, align 4
  %3 = getelementptr inbounds nuw i8, ptr %0, i64 80
  %4 = load ptr, ptr %3, align 8, !tbaa !36
  call void @llvm.lifetime.start.p0(i64 4, ptr nonnull %2) #7
  %5 = getelementptr inbounds nuw i8, ptr %0, i64 88
  %6 = load ptr, ptr %5, align 8, !tbaa !31
  %7 = tail call i32 @Msat_QueueExtract(ptr noundef %6) #7
  %8 = icmp sgt i32 %7, -1
  br i1 %8, label %.lr.ph63, label %.loopexit

.lr.ph63:                                         ; preds = %1
  %9 = getelementptr inbounds nuw i8, ptr %0, i64 272
  %10 = getelementptr inbounds nuw i8, ptr %0, i64 280
  %11 = getelementptr inbounds nuw i8, ptr %0, i64 104
  br label %12

12:                                               ; preds = %.lr.ph63, %._crit_edge
  %13 = phi i32 [ %7, %.lr.ph63 ], [ %64, %._crit_edge ]
  %14 = load i64, ptr %9, align 8, !tbaa !37
  %15 = add nsw i64 %14, 1
  store i64 %15, ptr %9, align 8, !tbaa !37
  %16 = zext nneg i32 %13 to i64
  %17 = getelementptr inbounds nuw ptr, ptr %4, i64 %16
  %18 = load ptr, ptr %17, align 8, !tbaa !38
  %19 = call i32 @Msat_ClauseVecReadSize(ptr noundef %18) #7
  %20 = load ptr, ptr %17, align 8, !tbaa !38
  %21 = call ptr @Msat_ClauseVecReadArray(ptr noundef %20) #7
  %22 = icmp sgt i32 %19, 0
  br i1 %22, label %.lr.ph.preheader, label %._crit_edge

.lr.ph.preheader:                                 ; preds = %12
  %wide.trip.count = zext nneg i32 %19 to i64
  br label %.lr.ph

.lr.ph:                                           ; preds = %.lr.ph.preheader, %61
  %indvars.iv = phi i64 [ 0, %.lr.ph.preheader ], [ %indvars.iv.next, %61 ]
  %.04661 = phi i32 [ 0, %.lr.ph.preheader ], [ %.1, %61 ]
  %23 = load i64, ptr %10, align 8, !tbaa !39
  %24 = add nsw i64 %23, 1
  store i64 %24, ptr %10, align 8, !tbaa !39
  store i32 -1, ptr %2, align 4, !tbaa !26
  %25 = getelementptr inbounds nuw ptr, ptr %21, i64 %indvars.iv
  %26 = load ptr, ptr %25, align 8, !tbaa !29
  %27 = load ptr, ptr %11, align 8, !tbaa !25
  %28 = call i32 @Msat_ClausePropagate(ptr noundef %26, i32 noundef %13, ptr noundef %27, ptr noundef nonnull %2) #7
  %.not = icmp eq i32 %28, 0
  %29 = load i32, ptr %2, align 4, !tbaa !26
  br i1 %.not, label %30, label %49

30:                                               ; preds = %.lr.ph
  %31 = load ptr, ptr %25, align 8, !tbaa !29
  %32 = call i32 @Msat_SolverEnqueue(ptr noundef nonnull %0, i32 noundef %29, ptr noundef %31)
  %.not52 = icmp eq i32 %32, 0
  br i1 %.not52, label %38, label %33

33:                                               ; preds = %30
  %34 = load ptr, ptr %25, align 8, !tbaa !29
  %35 = add nsw i32 %.04661, 1
  %36 = sext i32 %.04661 to i64
  %37 = getelementptr inbounds ptr, ptr %21, i64 %36
  store ptr %34, ptr %37, align 8, !tbaa !29
  br label %61

38:                                               ; preds = %30
  %39 = trunc nuw nsw i64 %indvars.iv to i32
  %40 = load ptr, ptr %25, align 8, !tbaa !29
  %41 = icmp sgt i32 %19, %39
  br i1 %41, label %.lr.ph67.preheader, label %._crit_edge68

.lr.ph67.preheader:                               ; preds = %38
  %42 = sext i32 %.04661 to i64
  br label %.lr.ph67

.lr.ph67:                                         ; preds = %.lr.ph67.preheader, %.lr.ph67
  %indvars.iv92 = phi i64 [ %indvars.iv, %.lr.ph67.preheader ], [ %indvars.iv.next93, %.lr.ph67 ]
  %indvars.iv89 = phi i64 [ %42, %.lr.ph67.preheader ], [ %indvars.iv.next90, %.lr.ph67 ]
  %43 = getelementptr inbounds nuw ptr, ptr %21, i64 %indvars.iv92
  %44 = load ptr, ptr %43, align 8, !tbaa !29
  %indvars.iv.next90 = add nsw i64 %indvars.iv89, 1
  %45 = getelementptr inbounds ptr, ptr %21, i64 %indvars.iv89
  store ptr %44, ptr %45, align 8, !tbaa !29
  %indvars.iv.next93 = add nuw nsw i64 %indvars.iv92, 1
  %exitcond100.not = icmp eq i64 %indvars.iv.next93, %wide.trip.count
  br i1 %exitcond100.not, label %._crit_edge68.loopexit, label %.lr.ph67, !llvm.loop !40

._crit_edge68.loopexit:                           ; preds = %.lr.ph67
  %46 = trunc nsw i64 %indvars.iv.next90 to i32
  br label %._crit_edge68

._crit_edge68:                                    ; preds = %._crit_edge68.loopexit, %38
  %.2.lcssa = phi i32 [ %.04661, %38 ], [ %46, %._crit_edge68.loopexit ]
  %47 = load ptr, ptr %17, align 8, !tbaa !38
  call void @Msat_ClauseVecShrink(ptr noundef %47, i32 noundef %.2.lcssa) #7
  %48 = load ptr, ptr %5, align 8, !tbaa !31
  call void @Msat_QueueClear(ptr noundef %48) #7
  br label %.loopexit

49:                                               ; preds = %.lr.ph
  %50 = icmp sgt i32 %29, -1
  br i1 %50, label %51, label %56

51:                                               ; preds = %49
  %52 = zext nneg i32 %29 to i64
  %53 = getelementptr inbounds nuw ptr, ptr %4, i64 %52
  %54 = load ptr, ptr %53, align 8, !tbaa !38
  %55 = load ptr, ptr %25, align 8, !tbaa !29
  call void @Msat_ClauseVecPush(ptr noundef %54, ptr noundef %55) #7
  br label %61

56:                                               ; preds = %49
  %57 = load ptr, ptr %25, align 8, !tbaa !29
  %58 = add nsw i32 %.04661, 1
  %59 = sext i32 %.04661 to i64
  %60 = getelementptr inbounds ptr, ptr %21, i64 %59
  store ptr %57, ptr %60, align 8, !tbaa !29
  br label %61

61:                                               ; preds = %51, %56, %33
  %.1 = phi i32 [ %.04661, %51 ], [ %58, %56 ], [ %35, %33 ]
  %indvars.iv.next = add nuw nsw i64 %indvars.iv, 1
  %exitcond.not = icmp eq i64 %indvars.iv.next, %wide.trip.count
  br i1 %exitcond.not, label %._crit_edge, label %.lr.ph, !llvm.loop !41

._crit_edge:                                      ; preds = %61, %12
  %.046.lcssa = phi i32 [ 0, %12 ], [ %.1, %61 ]
  %62 = load ptr, ptr %17, align 8, !tbaa !38
  call void @Msat_ClauseVecShrink(ptr noundef %62, i32 noundef %.046.lcssa) #7
  %63 = load ptr, ptr %5, align 8, !tbaa !31
  %64 = call i32 @Msat_QueueExtract(ptr noundef %63) #7
  %65 = icmp sgt i32 %64, -1
  br i1 %65, label %12, label %.loopexit, !llvm.loop !42

.loopexit:                                        ; preds = %._crit_edge, %1, %._crit_edge68
  %.0 = phi ptr [ %40, %._crit_edge68 ], [ null, %1 ], [ null, %._crit_edge ]
  call void @llvm.lifetime.end.p0(i64 4, ptr nonnull %2) #7
  ret ptr %.0
}